target datalayout = "e-m:e-p270:32:32-p271:32:32-p272:64:64-i64:64-i128:128-f80:128-n8:16:32:64-S128"
target triple = "x86_64-pc-linux-gnu"

%"class.std::__cxx11::basic_string" = type { %"struct.std::__cxx11::basic_string<char>::_Alloc_hider", i64, %union.anon }
%"struct.std::__cxx11::basic_string<char>::_Alloc_hider" = type { ptr }
%union.anon = type { i64, [8 x i8] }
%"struct.faiss::IOWriter" = type { ptr, %"class.std::__cxx11::basic_string" }
%"struct.faiss::FileIOWriter" = type <{ %"struct.faiss::IOWriter", ptr, i8, [7 x i8] }>

@_ZTVN5faiss8IOWriterE = unnamed_addr constant { [6 x ptr] } { [6 x ptr] [ptr null, ptr @_ZTIN5faiss8IOWriterE, ptr @__cxa_pure_virtual, ptr @_ZN5faiss8IOWriter6filenoEv, ptr @_ZN5faiss8IOWriterD2Ev, ptr @_ZN5faiss8IOWriterD0Ev] }, align 8
@_ZTVN5faiss12FileIOWriterE = unnamed_addr constant { [6 x ptr] } { [6 x ptr] [ptr null, ptr @_ZTIN5faiss12FileIOWriterE, ptr @_ZN5faiss12FileIOWriterclEPKvmm, ptr @_ZN5faiss12FileIOWriter6filenoEv, ptr @_ZN5faiss12FileIOWriterD1Ev, ptr @_ZN5faiss12FileIOWriterD0Ev] }, align 8
@stderr = external global ptr, align 8
@.str.8 = private unnamed_addr constant [24 x i8] c"file %s close error: %s\00", align 1

; Function Attrs: mustprogress nounwind uwtable
define linkonce_odr void @_ZN5faiss8IOWriterD2Ev(ptr noundef nonnull align 8 dereferenceable(40) %0) unnamed_addr #1 comdat align 2 {
  %2 = alloca ptr, align 8
  store ptr %0, ptr %2, align 8
  %3 = load ptr, ptr %2, align 8
  store ptr getelementptr inbounds ({ [6 x ptr] }, ptr @_ZTVN5faiss8IOWriterE, i32 0, i32 0, i32 2), ptr %3, align 8
  %4 = getelementptr inbounds %"struct.faiss::IOWriter", ptr %3, i32 0, i32 1
  call void @_ZNSt7__cxx1112basic_stringIcSt11char_traitsIcESaIcEED1Ev(ptr noundef nonnull align 8 dereferenceable(32) %4) #12
  ret void
}

; Function Attrs: mustprogress uwtable
define void @_ZN5faiss12FileIOWriterD2Ev(ptr noundef nonnull align 8 dereferenceable(49) %0) unnamed_addr #0 align 2 personality ptr @__gxx_personality_v0 {
  %2 = alloca ptr, align 8
  %3 = alloca i32, align 4
  %4 = alloca ptr, align 8
  %5 = alloca i32, align 4
  store ptr %0, ptr %2, align 8
  %6 = load ptr, ptr %2, align 8
  store ptr getelementptr inbounds ({ [6 x ptr] }, ptr @_ZTVN5faiss12FileIOWriterE, i32 0, i32 0, i32 2), ptr %6, align 8
  %7 = getelementptr inbounds %"struct.faiss::FileIOWriter", ptr %6, i32 0, i32 2
  %8 = load i8, ptr %7, align 8
  %9 = trunc i8 %8 to i1
  br i1 %9, label %10, label %30

10:                                               ; preds = %1
  %11 = getelementptr inbounds %"struct.faiss::FileIOWriter", ptr %6, i32 0, i32 1
  %12 = load ptr, ptr %11, align 8
  %13 = invoke i32 @fclose(ptr noundef %12)
          to label %14 unwind label %25

14:                                               ; preds = %10
  store i32 %13, ptr %3, align 4
  %15 = load i32, ptr %3, align 4
  %16 = icmp ne i32 %15, 0
  br i1 %16, label %17, label %29

17:                                               ; preds = %14
  %18 = load ptr, ptr @stderr, align 8
  %19 = getelementptr inbounds %"struct.faiss::IOWriter", ptr %6, i32 0, i32 1
  %20 = call noundef ptr @_ZNKSt7__cxx1112basic_stringIcSt11char_traitsIcESaIcEE5c_strEv(ptr noundef nonnull align 8 dereferenceable(32) %19) #12
  %21 = call ptr @__errno_location() #17
  %22 = load i32, ptr %21, align 4
  %23 = call ptr @strerror(i32 noundef %22) #12
  %24 = call i32 (ptr, ptr, ...) @fprintf(ptr noundef %18, ptr noundef @.str.8, ptr noundef %20, ptr noundef %23) #12
  br label %29

25:                                               ; preds = %10
  %26 = landingpad { ptr, i32 }
          cleanup
  %27 = extractvalue { ptr, i32 } %26, 0
  store ptr %27, ptr %4, align 8
  %28 = extractvalue { ptr, i32 } %26, 1
  store i32 %28, ptr %5, align 4
  call void @_ZN5faiss8IOWriterD2Ev(ptr noundef nonnull align 8 dereferenceable(40) %6)
  br label %31

29:                                               ; preds = %17, %14
  br label %30

30:                                               ; preds = %29, %1
  call void @_ZN5faiss8IOWriterD2Ev(ptr noundef nonnull align 8 dereferenceable(40) %6)
  ret void

31:                                               ; preds = %25
  %32 = load ptr, ptr %4, align 8
  %33 = load i32, ptr %5, align 4
  %34 = insertvalue { ptr, i32 } poison, ptr %32, 0
  %35 = insertvalue { ptr, i32 } %34, i32 %33, 1
  resume { ptr, i32 } %35
}