; Function Attrs: mustprogress nounwind uwtable
define void @_ZN5faiss12FileIOWriterD2Ev(ptr noundef nonnull align 8 dereferenceable(49) %0) unnamed_addr #1 align 2 personality ptr @__gxx_personality_v0 {
  store ptr getelementptr inbounds ({ [6 x ptr] }, ptr @_ZTVN5faiss12FileIOWriterE, i64 0, i32 0, i64 2), ptr %0, align 8
  %2 = getelementptr inbounds i8, ptr %0, i64 48
  %3 = load i8, ptr %2, align 8
  %4 = and i8 %3, 1
  %.not = icmp eq i8 %4, 0
  br i1 %.not, label %17, label %5

5:                                                ; preds = %1
  %6 = getelementptr inbounds i8, ptr %0, i64 40
  %7 = load ptr, ptr %6, align 8
  %8 = tail call i32 @fclose(ptr noundef %7)
  %.not1 = icmp eq i32 %8, 0
  br i1 %.not1, label %17, label %9

9:                                                ; preds = %5
  %10 = load ptr, ptr @stderr, align 8
  %11 = getelementptr inbounds i8, ptr %0, i64 8
  %12 = tail call noundef ptr @_ZNKSt7__cxx1112basic_stringIcSt11char_traitsIcESaIcEE5c_strEv(ptr noundef nonnull align 8 dereferenceable(32) %11) #21
  %13 = tail call ptr @__errno_location() #26
  %14 = load i32, ptr %13, align 4
  %15 = tail call ptr @strerror(i32 noundef %14) #21
  %16 = tail call i32 (ptr, ptr, ...) @fprintf(ptr noundef %10, ptr noundef nonnull @.str.8, ptr noundef %12, ptr noundef %15) #27
  br label %17

17:                                               ; preds = %5, %9, %1
  store ptr getelementptr inbounds ({ [6 x ptr] }, ptr @_ZTVN5faiss8IOWriterE, i64 0, i32 0, i64 2), ptr %0, align 8
  %18 = getelementptr inbounds i8, ptr %0, i64 8
  tail call void @_ZNSt7__cxx1112basic_stringIcSt11char_traitsIcESaIcEED1Ev(ptr noundef nonnull align 8 dereferenceable(32) %18) #21
  ret void
}